; Function Attrs: nounwind uwtable
define ptr @l_Lean_Compiler_LCNF_normParams___at_Lean_Compiler_LCNF_Code_cse_goFunDecl___spec__1(i8 noundef zeroext %0, ptr noundef %1, ptr noundef %2, ptr noundef %3, ptr noundef %4, ptr noundef %5, ptr noundef %6, ptr noundef %7) local_unnamed_addr #1 {
  tail call void @lean_inc_heartbeat() #4
  %9 = tail call noalias ptr @mi_malloc_small(i64 noundef 32) #4
  %10 = icmp eq ptr %9, null
  br i1 %10, label %11, label %lean_alloc_closure.exit

11:                                               ; preds = %8
  tail call void @lean_internal_panic_out_of_memory() #5
  unreachable

lean_alloc_closure.exit:                          ; preds = %8
  %12 = zext i8 %0 to i64
  %13 = shl nuw nsw i64 %12, 1
  %14 = or disjoint i64 %13, 1
  %15 = inttoptr i64 %14 to ptr
  %16 = getelementptr inbounds nuw i8, ptr %9, i64 4
  store i32 1, ptr %9, align 4, !tbaa !4
  store i32 -184549344, ptr %16, align 4
  %17 = getelementptr inbounds nuw i8, ptr %9, i64 8
  store ptr @l_Lean_Compiler_LCNF_normParam___at_Lean_Compiler_LCNF_Code_cse_goFunDecl___spec__2___boxed, ptr %17, align 8, !tbaa !9
  %18 = getelementptr inbounds nuw i8, ptr %9, i64 16
  store i16 8, ptr %18, align 8, !tbaa !14
  %19 = getelementptr inbounds nuw i8, ptr %9, i64 18
  store i16 1, ptr %19, align 2, !tbaa !14
  %20 = getelementptr inbounds nuw i8, ptr %9, i64 24
  store ptr %15, ptr %20, align 8, !tbaa !9
  %21 = tail call ptr @l___private_Init_Data_Array_BasicAux_0__mapMonoMImp_go___at_Lean_Compiler_LCNF_Code_cse_goFunDecl___spec__4(ptr noundef nonnull %9, ptr noundef nonnull inttoptr (i64 1 to ptr), ptr noundef %1, ptr noundef %2, ptr noundef %3, ptr noundef %4, ptr noundef %5, ptr noundef %6, ptr noundef %7)
  ret ptr %21
}